target datalayout = "e-m:e-p270:32:32-p271:32:32-p272:64:64-i64:64-i128:128-f80:128-n8:16:32:64-S128"
target triple = "x86_64-pc-linux-gnu"

%struct.gres_state = type { i32, i32, ptr, ptr, i32 }
%struct.gres_job_state = type { i32, ptr, i16, i16, i64, i64, i64, i64, i64, i16, i16, i64, i32, ptr, ptr, ptr, ptr, i32, i64, i32, ptr, ptr, ptr, ptr, ptr, ptr }

; Function Attrs: nounwind uwtable
define dso_local i64 @gres_select_util_job_mem_max(ptr noundef %0) #0 {
  %2 = alloca i64, align 8
  %3 = alloca ptr, align 8
  %4 = alloca ptr, align 8
  %5 = alloca ptr, align 8
  %6 = alloca ptr, align 8
  %7 = alloca i64, align 8
  %8 = alloca i64, align 8
  %9 = alloca i32, align 4
  store ptr %0, ptr %3, align 8
  call void @llvm.lifetime.start.p0(i64 8, ptr %4) #3
  call void @llvm.lifetime.start.p0(i64 8, ptr %5) #3
  call void @llvm.lifetime.start.p0(i64 8, ptr %6) #3
  call void @llvm.lifetime.start.p0(i64 8, ptr %7) #3
  store i64 0, ptr %7, align 8
  call void @llvm.lifetime.start.p0(i64 8, ptr %8) #3
  %10 = load ptr, ptr %3, align 8
  %11 = icmp ne ptr %10, null
  br i1 %11, label %13, label %12

12:                                               ; preds = %1
  store i64 0, ptr %2, align 8
  store i32 1, ptr %9, align 4
  br label %49

13:                                               ; preds = %1
  %14 = load ptr, ptr %3, align 8
  %15 = call ptr @slurm_list_iterator_create(ptr noundef %14)
  store ptr %15, ptr %4, align 8
  br label %16

16:                                               ; preds = %44, %13
  %17 = load ptr, ptr %4, align 8
  %18 = call ptr @slurm_list_next(ptr noundef %17)
  store ptr %18, ptr %5, align 8
  %19 = icmp ne ptr %18, null
  br i1 %19, label %20, label %46

20:                                               ; preds = %16
  %21 = load ptr, ptr %5, align 8
  %22 = getelementptr inbounds nuw %struct.gres_state, ptr %21, i32 0, i32 2
  %23 = load ptr, ptr %22, align 8
  store ptr %23, ptr %6, align 8
  %24 = load ptr, ptr %6, align 8
  %25 = getelementptr inbounds nuw %struct.gres_job_state, ptr %24, i32 0, i32 8
  %26 = load i64, ptr %25, align 8
  %27 = icmp ne i64 %26, 0
  br i1 %27, label %28, label %32

28:                                               ; preds = %20
  %29 = load ptr, ptr %6, align 8
  %30 = getelementptr inbounds nuw %struct.gres_job_state, ptr %29, i32 0, i32 8
  %31 = load i64, ptr %30, align 8
  store i64 %31, ptr %8, align 8
  br label %36

32:                                               ; preds = %20
  %33 = load ptr, ptr %6, align 8
  %34 = getelementptr inbounds nuw %struct.gres_job_state, ptr %33, i32 0, i32 11
  %35 = load i64, ptr %34, align 8
  store i64 %35, ptr %8, align 8
  br label %36

36:                                               ; preds = %32, %28
  %37 = load i64, ptr %7, align 8
  %38 = load i64, ptr %8, align 8
  %39 = icmp ugt i64 %37, %38
  br i1 %39, label %40, label %42

40:                                               ; preds = %36
  %41 = load i64, ptr %7, align 8
  br label %44

42:                                               ; preds = %36
  %43 = load i64, ptr %8, align 8
  br label %44

44:                                               ; preds = %42, %40
  %45 = phi i64 [ %41, %40 ], [ %43, %42 ]
  store i64 %45, ptr %7, align 8
  br label %16, !llvm.loop !18

46:                                               ; preds = %16
  %47 = load ptr, ptr %4, align 8
  call void @slurm_list_iterator_destroy(ptr noundef %47)
  %48 = load i64, ptr %7, align 8
  store i64 %48, ptr %2, align 8
  store i32 1, ptr %9, align 4
  br label %49

49:                                               ; preds = %46, %12
  call void @llvm.lifetime.end.p0(i64 8, ptr %8) #3
  call void @llvm.lifetime.end.p0(i64 8, ptr %7) #3
  call void @llvm.lifetime.end.p0(i64 8, ptr %6) #3
  call void @llvm.lifetime.end.p0(i64 8, ptr %5) #3
  call void @llvm.lifetime.end.p0(i64 8, ptr %4) #3
  %50 = load i64, ptr %2, align 8
  ret i64 %50
}