; Function Attrs: nounwind uwtable
define dso_local i64 @gres_select_util_job_mem_max(ptr noundef %0) local_unnamed_addr #0 {
  %.not = icmp eq ptr %0, null
  br i1 %.not, label %16, label %2

2:                                                ; preds = %1
  %3 = tail call ptr @slurm_list_iterator_create(ptr noundef nonnull %0) #4
  %4 = tail call ptr @slurm_list_next(ptr noundef %3) #4
  %.not1820 = icmp eq ptr %4, null
  br i1 %.not1820, label %._crit_edge, label %.lr.ph

.lr.ph:                                           ; preds = %2, %13
  %5 = phi ptr [ %15, %13 ], [ %4, %2 ]
  %.01321 = phi i64 [ %14, %13 ], [ 0, %2 ]
  %6 = getelementptr inbounds nuw i8, ptr %5, i64 8
  %7 = load ptr, ptr %6, align 8
  %8 = getelementptr inbounds nuw i8, ptr %7, i64 56
  %9 = load i64, ptr %8, align 8
  %.not19 = icmp eq i64 %9, 0
  br i1 %.not19, label %10, label %13

10:                                               ; preds = %.lr.ph
  %11 = getelementptr inbounds nuw i8, ptr %7, i64 72
  %12 = load i64, ptr %11, align 8
  br label %13

13:                                               ; preds = %.lr.ph, %10
  %.0 = phi i64 [ %12, %10 ], [ %9, %.lr.ph ]
  %14 = tail call i64 @llvm.umax.i64(i64 %.01321, i64 %.0)
  %15 = tail call ptr @slurm_list_next(ptr noundef %3) #4
  %.not18 = icmp eq ptr %15, null
  br i1 %.not18, label %._crit_edge, label %.lr.ph, !llvm.loop !16

._crit_edge:                                      ; preds = %13, %2
  %.013.lcssa = phi i64 [ 0, %2 ], [ %14, %13 ]
  tail call void @slurm_list_iterator_destroy(ptr noundef %3) #4
  br label %16

16:                                               ; preds = %1, %._crit_edge
  %.014 = phi i64 [ %.013.lcssa, %._crit_edge ], [ 0, %1 ]
  ret i64 %.014
}